; Function Attrs: mustprogress nounwind uwtable
define dso_local void @_ZN4llvm8InitLLVMD2Ev(ptr noundef nonnull align 8 dereferenceable(152) %0) unnamed_addr #0 align 2 {
  tail call void @_ZN4llvm13llvm_shutdownEv() #7
  %2 = getelementptr inbounds i8, ptr %0, i64 144
  %3 = load i8, ptr %2, align 8
  %4 = trunc i8 %3 to i1
  br i1 %4, label %5, label %_ZNSt8optionalIN4llvm23PrettyStackTraceProgramEED2Ev.exit

5:                                                ; preds = %1
  %6 = getelementptr inbounds nuw i8, ptr %0, i64 112
  store i8 0, ptr %2, align 8
  tail call void @_ZN4llvm21PrettyStackTraceEntryD2Ev(ptr noundef nonnull align 8 dereferenceable(16) %6) #7
  br label %_ZNSt8optionalIN4llvm23PrettyStackTraceProgramEED2Ev.exit

_ZNSt8optionalIN4llvm23PrettyStackTraceProgramEED2Ev.exit: ; preds = %1, %5
  %7 = getelementptr inbounds nuw i8, ptr %0, i64 96
  %8 = tail call noundef i64 @_ZNK4llvm15SmallVectorBaseIjE4sizeEv(ptr noundef nonnull align 8 dereferenceable(16) %7) #7
  %9 = load ptr, ptr %7, align 8
  %10 = getelementptr inbounds i8, ptr %0, i64 112
  %11 = icmp eq ptr %9, %10
  br i1 %11, label %_ZN4llvm11SmallVectorIPKcLj0EED2Ev.exit, label %12

12:                                               ; preds = %_ZNSt8optionalIN4llvm23PrettyStackTraceProgramEED2Ev.exit
  tail call void @free(ptr noundef %9) #7
  br label %_ZN4llvm11SmallVectorIPKcLj0EED2Ev.exit

_ZN4llvm11SmallVectorIPKcLj0EED2Ev.exit:          ; preds = %_ZNSt8optionalIN4llvm23PrettyStackTraceProgramEED2Ev.exit, %12
  tail call void @_ZN4llvm20BumpPtrAllocatorImplINS_15MallocAllocatorELm4096ELm4096ELm128EED2Ev(ptr noundef nonnull align 8 dereferenceable(96) %0) #7
  ret void
}